; Function Attrs: nounwind uwtable
define hidden void @je_malloc_mutex_prof_data_reset(ptr noundef readnone captures(none) %0, ptr noundef initializes((0, 64)) %1) local_unnamed_addr #0 {
  tail call void @llvm.memset.p0.i64(ptr noundef nonnull align 8 dereferenceable(64) %1, i8 0, i64 64, i1 false)
  %3 = getelementptr inbounds nuw i8, ptr %1, i64 8
  tail call void @je_nstime_copy(ptr noundef nonnull %3, ptr noundef nonnull @nstime_zero) #7
  tail call void @je_nstime_copy(ptr noundef nonnull %1, ptr noundef nonnull @nstime_zero) #7
  %4 = getelementptr inbounds nuw i8, ptr %1, i64 48
  store ptr null, ptr %4, align 8, !tbaa !22
  ret void
}